; Function Attrs: mustprogress uwtable
define noundef i32 @_ZN6icu_756number4impl17ParsedPatternInfo11ParserState4peekEv(ptr nocapture noundef nonnull readonly align 8 dereferenceable(12) %this) local_unnamed_addr #1 align 2 {
entry:
  %offset = getelementptr inbounds i8, ptr %this, i64 8
  %0 = load i32, ptr %offset, align 8
  %1 = load ptr, ptr %this, align 8
  %fUnion.i.i = getelementptr inbounds i8, ptr %1, i64 8
  %2 = load i16, ptr %fUnion.i.i, align 8
  %cmp.i.i = icmp slt i16 %2, 0
  %3 = ashr i16 %2, 5
  %shr.i.i = sext i16 %3 to i32
  %fLength.i = getelementptr inbounds i8, ptr %1, i64 12
  %4 = load i32, ptr %fLength.i, align 4
  %cond.i = select i1 %cmp.i.i, i32 %4, i32 %shr.i.i
  %cmp = icmp eq i32 %0, %cond.i
  br i1 %cmp, label %return, label %if.else

if.else:                                          ; preds = %entry
  %call4 = tail call noundef i32 @_ZNK6icu_7513UnicodeString8char32AtEi(ptr noundef nonnull align 8 dereferenceable(64) %1, i32 noundef %0)
  br label %return

return:                                           ; preds = %entry, %if.else
  %retval.0 = phi i32 [ %call4, %if.else ], [ -1, %entry ]
  ret i32 %retval.0
}